(lp0
(S'cppflags'
p1
ccopy_reg
_reconstructor
p2
(cino.utils
SpaceList
p3
c__builtin__
list
p4
(lp5
S'-mmcu=atmega2560'
p6
aS'-DF_CPU=16000000L'
p7
aS'-DARDUINO=101'
p8
aS'-I/usr/share/arduino/hardware/arduino/cores/arduino'
p9
aS'-ffunction-sections'
p10
aS'-fdata-sections'
p11
aS'-g'
p12
aS'-Os'
p13
aS'-w'
p14
aS'-I/usr/share/arduino/hardware/arduino/variants/mega'
p15
aS'-I/usr/share/arduino/libraries/Servo'
p16
aS'-I/usr/share/arduino/libraries/Firmata'
p17
aS'-I/usr/share/arduino/libraries/Wire'
p18
aS'-I/usr/share/arduino/libraries/Wire/utility'
p19
aS'-I/usr/share/arduino/hardware/arduino/cores/arduino'
p20
atp21
Rp22
tp23
a(S'cxx'
p24
S'/usr/bin/avr-g++'
p25
tp26
a(S'arduino_libraries_dir'
p27
S'/usr/share/arduino/libraries'
p28
tp29
a(S'avrdude'
p30
S'/usr/share/arduino/hardware/tools/avrdude'
p31
tp32
a(S'ar'
p33
S'/usr/bin/avr-ar'
p34
tp35
a(S'names'
p36
(dp37
S'cpp'
p38
S'%s.cpp'
p39
sS'obj'
p40
S'%s.o'
p41
sS'lib'
p42
S'lib%s.a'
p43
sS'deps'
p44
S'%s.d'
p45
stp46
a(S'ldflags'
p47
g2
(g3
g4
(lp48
g6
aS'-Wl,-Os'
p49
aS'-Wl,--gc-sections'
p50
atp51
Rp52
tp53
a(S'arduino_lib_version'
p54
g2
(cino.environment
Version
p55
c__builtin__
tuple
p56
(I1
I0
I1
tp57
tp58
Rp59
tp60
a(S'objcopy'
p61
S'/usr/bin/avr-objcopy'
p62
tp63
a(S'board_models'
p64
cino.environment
BoardModels
p65
((lp66
(lp67
S'uno'
p68
a(dp69
S'_coredir'
p70
S'/usr/share/arduino/hardware/arduino'
p71
sS'bootloader'
p72
(dp73
S'extended_fuses'
p74
S'0x05'
p75
sS'high_fuses'
p76
S'0xde'
p77
sS'low_fuses'
p78
S'0xff'
p79
sS'lock_bits'
p80
S'0x0F'
p81
sS'file'
p82
S'optiboot_atmega328.hex'
p83
sS'path'
p84
S'optiboot'
p85
sS'unlock_bits'
p86
S'0x3F'
p87
ssS'build'
p88
(dp89
S'core'
p90
S'arduino'
p91
sS'mcu'
p92
S'atmega328p'
p93
sS'f_cpu'
p94
S'16000000L'
p95
sS'variant'
p96
S'standard'
p97
ssS'name'
p98
S'Arduino Uno'
p99
sS'upload'
p100
(dp101
S'protocol'
p102
S'arduino'
p103
sS'maximum_size'
p104
S'32256'
p105
sS'speed'
p106
S'115200'
p107
ssaa(lp108
S'atmega328'
p109
a(dp110
g70
S'/usr/share/arduino/hardware/arduino'
p111
sS'bootloader'
p112
(dp113
S'extended_fuses'
p114
S'0x05'
p115
sS'high_fuses'
p116
S'0xDA'
p117
sS'low_fuses'
p118
S'0xFF'
p119
sS'lock_bits'
p120
S'0x0F'
p121
sS'file'
p122
S'ATmegaBOOT_168_atmega328.hex'
p123
sS'path'
p124
S'atmega'
p125
sS'unlock_bits'
p126
S'0x3F'
p127
ssS'build'
p128
(dp129
S'core'
p130
S'arduino'
p131
sS'mcu'
p132
S'atmega328p'
p133
sS'f_cpu'
p134
S'16000000L'
p135
sS'variant'
p136
S'standard'
p137
ssS'name'
p138
S'Arduino Duemilanove w/ ATmega328'
p139
sS'upload'
p140
(dp141
S'protocol'
p142
S'arduino'
p143
sS'maximum_size'
p144
S'30720'
p145
sS'speed'
p146
S'57600'
p147
ssaa(lp148
S'diecimila'
p149
a(dp150
g70
S'/usr/share/arduino/hardware/arduino'
p151
sS'bootloader'
p152
(dp153
S'extended_fuses'
p154
S'0x00'
p155
sS'high_fuses'
p156
S'0xdd'
p157
sS'low_fuses'
p158
S'0xff'
p159
sS'lock_bits'
p160
S'0x0F'
p161
sS'file'
p162
S'ATmegaBOOT_168_diecimila.hex'
p163
sS'path'
p164
S'atmega'
p165
sS'unlock_bits'
p166
S'0x3F'
p167
ssS'build'
p168
(dp169
S'core'
p170
S'arduino'
p171
sS'mcu'
p172
S'atmega168'
p173
sS'f_cpu'
p174
S'16000000L'
p175
sS'variant'
p176
S'standard'
p177
ssS'name'
p178
S'Arduino Diecimila or Duemilanove w/ ATmega168'
p179
sS'upload'
p180
(dp181
S'protocol'
p182
S'arduino'
p183
sS'maximum_size'
p184
S'14336'
p185
sS'speed'
p186
S'19200'
p187
ssaa(lp188
S'nano328'
p189
a(dp190
g70
S'/usr/share/arduino/hardware/arduino'
p191
sS'bootloader'
p192
(dp193
S'extended_fuses'
p194
S'0x05'
p195
sS'high_fuses'
p196
S'0xDA'
p197
sS'low_fuses'
p198
S'0xFF'
p199
sS'lock_bits'
p200
S'0x0F'
p201
sS'file'
p202
S'ATmegaBOOT_168_atmega328.hex'
p203
sS'path'
p204
S'atmega'
p205
sS'unlock_bits'
p206
S'0x3F'
p207
ssS'build'
p208
(dp209
S'core'
p210
S'arduino'
p211
sS'mcu'
p212
S'atmega328p'
p213
sS'f_cpu'
p214
S'16000000L'
p215
sS'variant'
p216
S'eightanaloginputs'
p217
ssS'name'
p218
S'Arduino Nano w/ ATmega328'
p219
sS'upload'
p220
(dp221
S'protocol'
p222
S'arduino'
p223
sS'maximum_size'
p224
S'30720'
p225
sS'speed'
p226
S'57600'
p227
ssaa(lp228
S'nano'
p229
a(dp230
g70
S'/usr/share/arduino/hardware/arduino'
p231
sS'bootloader'
p232
(dp233
S'extended_fuses'
p234
S'0x00'
p235
sS'high_fuses'
p236
S'0xdd'
p237
sS'low_fuses'
p238
S'0xff'
p239
sS'lock_bits'
p240
S'0x0F'
p241
sS'file'
p242
S'ATmegaBOOT_168_diecimila.hex'
p243
sS'path'
p244
S'atmega'
p245
sS'unlock_bits'
p246
S'0x3F'
p247
ssS'build'
p248
(dp249
S'core'
p250
S'arduino'
p251
sS'mcu'
p252
S'atmega168'
p253
sS'f_cpu'
p254
S'16000000L'
p255
sS'variant'
p256
S'eightanaloginputs'
p257
ssS'name'
p258
S'Arduino Nano w/ ATmega168'
p259
sS'upload'
p260
(dp261
S'protocol'
p262
S'arduino'
p263
sS'maximum_size'
p264
S'14336'
p265
sS'speed'
p266
S'19200'
p267
ssaa(lp268
S'mega2560'
p269
a(dp270
g70
S'/usr/share/arduino/hardware/arduino'
p271
sS'bootloader'
p272
(dp273
S'extended_fuses'
p274
S'0xFD'
p275
sS'high_fuses'
p276
S'0xD8'
p277
sS'low_fuses'
p278
S'0xFF'
p279
sS'lock_bits'
p280
S'0x0F'
p281
sS'file'
p282
S'stk500boot_v2_mega2560.hex'
p283
sS'path'
p284
S'stk500v2'
p285
sS'unlock_bits'
p286
S'0x3F'
p287
ssS'build'
p288
(dp289
S'core'
p290
S'arduino'
p291
sS'mcu'
p292
S'atmega2560'
p293
sS'f_cpu'
p294
S'16000000L'
p295
sS'variant'
p296
S'mega'
p297
ssS'name'
p298
S'Arduino Mega 2560 or Mega ADK'
p299
sS'upload'
p300
(dp301
S'protocol'
p302
S'stk500v2'
p303
sS'maximum_size'
p304
S'258048'
p305
sS'speed'
p306
S'115200'
p307
ssaa(lp308
S'mega'
p309
a(dp310
g70
S'/usr/share/arduino/hardware/arduino'
p311
sS'bootloader'
p312
(dp313
S'extended_fuses'
p314
S'0xF5'
p315
sS'high_fuses'
p316
S'0xDA'
p317
sS'low_fuses'
p318
S'0xFF'
p319
sS'lock_bits'
p320
S'0x0F'
p321
sS'file'
p322
S'ATmegaBOOT_168_atmega1280.hex'
p323
sS'path'
p324
S'atmega'
p325
sS'unlock_bits'
p326
S'0x3F'
p327
ssS'build'
p328
(dp329
S'core'
p330
S'arduino'
p331
sS'mcu'
p332
S'atmega1280'
p333
sS'f_cpu'
p334
S'16000000L'
p335
sS'variant'
p336
S'mega'
p337
ssS'name'
p338
S'Arduino Mega (ATmega1280)'
p339
sS'upload'
p340
(dp341
S'protocol'
p342
S'arduino'
p343
sS'maximum_size'
p344
S'126976'
p345
sS'speed'
p346
S'57600'
p347
ssaa(lp348
S'leonardo'
p349
a(dp350
g70
S'/usr/share/arduino/hardware/arduino'
p351
sS'bootloader'
p352
(dp353
S'extended_fuses'
p354
S'0xcb'
p355
sS'high_fuses'
p356
S'0xd8'
p357
sS'low_fuses'
p358
S'0xff'
p359
sS'lock_bits'
p360
S'0x2F'
p361
sS'file'
p362
S'Caterina-Leonardo.hex'
p363
sS'path'
p364
S'caterina'
p365
sS'unlock_bits'
p366
S'0x3F'
p367
ssS'build'
p368
(dp369
S'core'
p370
S'arduino'
p371
sS'f_cpu'
p372
S'16000000L'
p373
sS'vid'
p374
S'0x2341'
p375
sS'pid'
p376
S'0x8036'
p377
sS'variant'
p378
S'leonardo'
p379
sS'mcu'
p380
S'atmega32u4'
p381
ssS'name'
p382
S'Arduino Leonardo'
p383
sS'upload'
p384
(dp385
S'protocol'
p386
S'avr109'
p387
sS'maximum_size'
p388
S'28672'
p389
sS'speed'
p390
S'57600'
p391
sS'disable_flushing'
p392
S'true'
p393
ssaa(lp394
S'mini328'
p395
a(dp396
g70
S'/usr/share/arduino/hardware/arduino'
p397
sS'bootloader'
p398
(dp399
S'extended_fuses'
p400
S'0x05'
p401
sS'high_fuses'
p402
S'0xd8'
p403
sS'low_fuses'
p404
S'0xff'
p405
sS'lock_bits'
p406
S'0x0F'
p407
sS'file'
p408
S'optiboot_atmega328-Mini.hex'
p409
sS'path'
p410
S'optiboot'
p411
sS'unlock_bits'
p412
S'0x3F'
p413
ssS'build'
p414
(dp415
S'core'
p416
S'arduino'
p417
sS'mcu'
p418
S'atmega328p'
p419
sS'f_cpu'
p420
S'16000000L'
p421
sS'variant'
p422
S'eightanaloginputs'
p423
ssS'name'
p424
S'Arduino Mini w/ ATmega328'
p425
sS'upload'
p426
(dp427
S'protocol'
p428
S'arduino'
p429
sS'maximum_size'
p430
S'28672'
p431
sS'speed'
p432
S'115200'
p433
ssaa(lp434
S'mini'
p435
a(dp436
g70
S'/usr/share/arduino/hardware/arduino'
p437
sS'bootloader'
p438
(dp439
S'extended_fuses'
p440
S'0x00'
p441
sS'high_fuses'
p442
S'0xdd'
p443
sS'low_fuses'
p444
S'0xff'
p445
sS'lock_bits'
p446
S'0x0F'
p447
sS'file'
p448
S'ATmegaBOOT_168_ng.hex'
p449
sS'path'
p450
S'atmega'
p451
sS'unlock_bits'
p452
S'0x3F'
p453
ssS'build'
p454
(dp455
S'core'
p456
S'arduino'
p457
sS'mcu'
p458
S'atmega168'
p459
sS'f_cpu'
p460
S'16000000L'
p461
sS'variant'
p462
S'eightanaloginputs'
p463
ssS'name'
p464
S'Arduino Mini w/ ATmega168'
p465
sS'upload'
p466
(dp467
S'protocol'
p468
S'arduino'
p469
sS'maximum_size'
p470
S'14336'
p471
sS'speed'
p472
S'19200'
p473
ssaa(lp474
S'ethernet'
p475
a(dp476
g70
S'/usr/share/arduino/hardware/arduino'
p477
sS'bootloader'
p478
(dp479
S'extended_fuses'
p480
S'0x05'
p481
sS'high_fuses'
p482
S'0xde'
p483
sS'low_fuses'
p484
S'0xff'
p485
sS'lock_bits'
p486
S'0x0F'
p487
sS'file'
p488
S'optiboot_atmega328.hex'
p489
sS'path'
p490
S'optiboot'
p491
sS'unlock_bits'
p492
S'0x3F'
p493
ssS'build'
p494
(dp495
S'variant'
p496
S'standard'
p497
sS'mcu'
p498
S'atmega328p'
p499
sS'f_cpu'
p500
S'16000000L'
p501
sS'core'
p502
S'arduino'
p503
ssS'name'
p504
S'Arduino Ethernet'
p505
sS'upload'
p506
(dp507
S'protocol'
p508
S'arduino'
p509
sS'maximum_size'
p510
S'32256'
p511
sS'speed'
p512
S'115200'
p513
ssaa(lp514
S'fio'
p515
a(dp516
g70
S'/usr/share/arduino/hardware/arduino'
p517
sS'bootloader'
p518
(dp519
S'extended_fuses'
p520
S'0x05'
p521
sS'high_fuses'
p522
S'0xDA'
p523
sS'low_fuses'
p524
S'0xFF'
p525
sS'lock_bits'
p526
S'0x0F'
p527
sS'file'
p528
S'ATmegaBOOT_168_atmega328_pro_8MHz.hex'
p529
sS'path'
p530
S'arduino:atmega'
p531
sS'unlock_bits'
p532
S'0x3F'
p533
ssS'build'
p534
(dp535
S'core'
p536
S'arduino'
p537
sS'mcu'
p538
S'atmega328p'
p539
sS'f_cpu'
p540
S'8000000L'
p541
sS'variant'
p542
S'eightanaloginputs'
p543
ssS'name'
p544
S'Arduino Fio'
p545
sS'upload'
p546
(dp547
S'protocol'
p548
S'arduino'
p549
sS'maximum_size'
p550
S'30720'
p551
sS'speed'
p552
S'57600'
p553
ssaa(lp554
S'bt328'
p555
a(dp556
g70
S'/usr/share/arduino/hardware/arduino'
p557
sS'bootloader'
p558
(dp559
S'extended_fuses'
p560
S'0x05'
p561
sS'high_fuses'
p562
S'0xd8'
p563
sS'low_fuses'
p564
S'0xff'
p565
sS'lock_bits'
p566
S'0x0F'
p567
sS'file'
p568
S'ATmegaBOOT_168_atmega328_bt.hex'
p569
sS'path'
p570
S'bt'
p571
sS'unlock_bits'
p572
S'0x3F'
p573
ssS'build'
p574
(dp575
S'core'
p576
S'arduino'
p577
sS'mcu'
p578
S'atmega328p'
p579
sS'f_cpu'
p580
S'16000000L'
p581
sS'variant'
p582
S'eightanaloginputs'
p583
ssS'name'
p584
S'Arduino BT w/ ATmega328'
p585
sS'upload'
p586
(dp587
S'protocol'
p588
S'arduino'
p589
sS'maximum_size'
p590
S'28672'
p591
sS'speed'
p592
S'19200'
p593
sS'disable_flushing'
p594
S'true'
p595
ssaa(lp596
S'bt'
p597
a(dp598
g70
S'/usr/share/arduino/hardware/arduino'
p599
sS'bootloader'
p600
(dp601
S'extended_fuses'
p602
S'0x00'
p603
sS'high_fuses'
p604
S'0xdd'
p605
sS'low_fuses'
p606
S'0xff'
p607
sS'lock_bits'
p608
S'0x0F'
p609
sS'file'
p610
S'ATmegaBOOT_168.hex'
p611
sS'path'
p612
S'bt'
p613
sS'unlock_bits'
p614
S'0x3F'
p615
ssS'build'
p616
(dp617
S'core'
p618
S'arduino'
p619
sS'mcu'
p620
S'atmega168'
p621
sS'f_cpu'
p622
S'16000000L'
p623
sS'variant'
p624
S'eightanaloginputs'
p625
ssS'name'
p626
S'Arduino BT w/ ATmega168'
p627
sS'upload'
p628
(dp629
S'protocol'
p630
S'arduino'
p631
sS'maximum_size'
p632
S'14336'
p633
sS'speed'
p634
S'19200'
p635
sS'disable_flushing'
p636
S'true'
p637
ssaa(lp638
S'lilypad328'
p639
a(dp640
g70
S'/usr/share/arduino/hardware/arduino'
p641
sS'bootloader'
p642
(dp643
S'extended_fuses'
p644
S'0x05'
p645
sS'high_fuses'
p646
S'0xDA'
p647
sS'low_fuses'
p648
S'0xFF'
p649
sS'lock_bits'
p650
S'0x0F'
p651
sS'file'
p652
S'ATmegaBOOT_168_atmega328_pro_8MHz.hex'
p653
sS'path'
p654
S'atmega'
p655
sS'unlock_bits'
p656
S'0x3F'
p657
ssS'build'
p658
(dp659
S'core'
p660
S'arduino'
p661
sS'mcu'
p662
S'atmega328p'
p663
sS'f_cpu'
p664
S'8000000L'
p665
sS'variant'
p666
S'standard'
p667
ssS'name'
p668
S'LilyPad Arduino w/ ATmega328'
p669
sS'upload'
p670
(dp671
S'protocol'
p672
S'arduino'
p673
sS'maximum_size'
p674
S'30720'
p675
sS'speed'
p676
S'57600'
p677
ssaa(lp678
S'lilypad'
p679
a(dp680
g70
S'/usr/share/arduino/hardware/arduino'
p681
sS'bootloader'
p682
(dp683
S'extended_fuses'
p684
S'0x00'
p685
sS'high_fuses'
p686
S'0xdd'
p687
sS'low_fuses'
p688
S'0xe2'
p689
sS'lock_bits'
p690
S'0x0F'
p691
sS'file'
p692
S'LilyPadBOOT_168.hex'
p693
sS'path'
p694
S'lilypad'
p695
sS'unlock_bits'
p696
S'0x3F'
p697
ssS'build'
p698
(dp699
S'core'
p700
S'arduino'
p701
sS'mcu'
p702
S'atmega168'
p703
sS'f_cpu'
p704
S'8000000L'
p705
sS'variant'
p706
S'standard'
p707
ssS'name'
p708
S'LilyPad Arduino w/ ATmega168'
p709
sS'upload'
p710
(dp711
S'protocol'
p712
S'arduino'
p713
sS'maximum_size'
p714
S'14336'
p715
sS'speed'
p716
S'19200'
p717
ssaa(lp718
S'pro5v328'
p719
a(dp720
g70
S'/usr/share/arduino/hardware/arduino'
p721
sS'bootloader'
p722
(dp723
S'extended_fuses'
p724
S'0x05'
p725
sS'high_fuses'
p726
S'0xDA'
p727
sS'low_fuses'
p728
S'0xFF'
p729
sS'lock_bits'
p730
S'0x0F'
p731
sS'file'
p732
S'ATmegaBOOT_168_atmega328.hex'
p733
sS'path'
p734
S'atmega'
p735
sS'unlock_bits'
p736
S'0x3F'
p737
ssS'build'
p738
(dp739
S'core'
p740
S'arduino'
p741
sS'mcu'
p742
S'atmega328p'
p743
sS'f_cpu'
p744
S'16000000L'
p745
sS'variant'
p746
S'standard'
p747
ssS'name'
p748
S'Arduino Pro or Pro Mini (5V, 16 MHz) w/ ATmega328'
p749
sS'upload'
p750
(dp751
S'protocol'
p752
S'arduino'
p753
sS'maximum_size'
p754
S'30720'
p755
sS'speed'
p756
S'57600'
p757
ssaa(lp758
S'pro5v'
p759
a(dp760
g70
S'/usr/share/arduino/hardware/arduino'
p761
sS'bootloader'
p762
(dp763
S'extended_fuses'
p764
S'0x00'
p765
sS'high_fuses'
p766
S'0xdd'
p767
sS'low_fuses'
p768
S'0xff'
p769
sS'lock_bits'
p770
S'0x0F'
p771
sS'file'
p772
S'ATmegaBOOT_168_diecimila.hex'
p773
sS'path'
p774
S'atmega'
p775
sS'unlock_bits'
p776
S'0x3F'
p777
ssS'build'
p778
(dp779
S'core'
p780
S'arduino'
p781
sS'mcu'
p782
S'atmega168'
p783
sS'f_cpu'
p784
S'16000000L'
p785
sS'variant'
p786
S'standard'
p787
ssS'name'
p788
S'Arduino Pro or Pro Mini (5V, 16 MHz) w/ ATmega168'
p789
sS'upload'
p790
(dp791
S'protocol'
p792
S'arduino'
p793
sS'maximum_size'
p794
S'14336'
p795
sS'speed'
p796
S'19200'
p797
ssaa(lp798
S'pro328'
p799
a(dp800
g70
S'/usr/share/arduino/hardware/arduino'
p801
sS'bootloader'
p802
(dp803
S'extended_fuses'
p804
S'0x05'
p805
sS'high_fuses'
p806
S'0xDA'
p807
sS'low_fuses'
p808
S'0xFF'
p809
sS'lock_bits'
p810
S'0x0F'
p811
sS'file'
p812
S'ATmegaBOOT_168_atmega328_pro_8MHz.hex'
p813
sS'path'
p814
S'atmega'
p815
sS'unlock_bits'
p816
S'0x3F'
p817
ssS'build'
p818
(dp819
S'core'
p820
S'arduino'
p821
sS'mcu'
p822
S'atmega328p'
p823
sS'f_cpu'
p824
S'8000000L'
p825
sS'variant'
p826
S'standard'
p827
ssS'name'
p828
S'Arduino Pro or Pro Mini (3.3V, 8 MHz) w/ ATmega328'
p829
sS'upload'
p830
(dp831
S'protocol'
p832
S'arduino'
p833
sS'maximum_size'
p834
S'30720'
p835
sS'speed'
p836
S'57600'
p837
ssaa(lp838
S'pro'
p839
a(dp840
g70
S'/usr/share/arduino/hardware/arduino'
p841
sS'bootloader'
p842
(dp843
S'extended_fuses'
p844
S'0x00'
p845
sS'high_fuses'
p846
S'0xdd'
p847
sS'low_fuses'
p848
S'0xc6'
p849
sS'lock_bits'
p850
S'0x0F'
p851
sS'file'
p852
S'ATmegaBOOT_168_pro_8MHz.hex'
p853
sS'path'
p854
S'atmega'
p855
sS'unlock_bits'
p856
S'0x3F'
p857
ssS'build'
p858
(dp859
S'core'
p860
S'arduino'
p861
sS'mcu'
p862
S'atmega168'
p863
sS'f_cpu'
p864
S'8000000L'
p865
sS'variant'
p866
S'standard'
p867
ssS'name'
p868
S'Arduino Pro or Pro Mini (3.3V, 8 MHz) w/ ATmega168'
p869
sS'upload'
p870
(dp871
S'protocol'
p872
S'arduino'
p873
sS'maximum_size'
p874
S'14336'
p875
sS'speed'
p876
S'19200'
p877
ssaa(lp878
S'atmega168'
p879
a(dp880
g70
S'/usr/share/arduino/hardware/arduino'
p881
sS'bootloader'
p882
(dp883
S'extended_fuses'
p884
S'0x00'
p885
sS'high_fuses'
p886
S'0xdd'
p887
sS'low_fuses'
p888
S'0xff'
p889
sS'lock_bits'
p890
S'0x0F'
p891
sS'file'
p892
S'ATmegaBOOT_168_ng.hex'
p893
sS'path'
p894
S'atmega'
p895
sS'unlock_bits'
p896
S'0x3F'
p897
ssS'build'
p898
(dp899
S'core'
p900
S'arduino'
p901
sS'mcu'
p902
S'atmega168'
p903
sS'f_cpu'
p904
S'16000000L'
p905
sS'variant'
p906
S'standard'
p907
ssS'name'
p908
S'Arduino NG or older w/ ATmega168'
p909
sS'upload'
p910
(dp911
S'protocol'
p912
S'arduino'
p913
sS'maximum_size'
p914
S'14336'
p915
sS'speed'
p916
S'19200'
p917
ssaa(lp918
S'atmega8'
p919
a(dp920
g70
S'/usr/share/arduino/hardware/arduino'
p921
sS'bootloader'
p922
(dp923
S'high_fuses'
p924
S'0xca'
p925
sS'low_fuses'
p926
S'0xdf'
p927
sS'lock_bits'
p928
S'0x0F'
p929
sS'file'
p930
S'ATmegaBOOT.hex'
p931
sS'path'
p932
S'atmega8'
p933
sS'unlock_bits'
p934
S'0x3F'
p935
ssS'build'
p936
(dp937
S'core'
p938
S'arduino'
p939
sS'mcu'
p940
S'atmega8'
p941
sS'f_cpu'
p942
S'16000000L'
p943
sS'variant'
p944
S'standard'
p945
ssS'name'
p946
S'Arduino NG or older w/ ATmega8'
p947
sS'upload'
p948
(dp949
S'protocol'
p950
S'arduino'
p951
sS'maximum_size'
p952
S'7168'
p953
sS'speed'
p954
S'19200'
p955
ssaatp956
Rp957
(dp958
S'default'
p959
S'uno'
p960
sbtp961
a(S'used_libs'
p962
(lp963
S'/usr/share/arduino/libraries/Servo'
p964
aS'/usr/share/arduino/libraries/Firmata'
p965
aS'/usr/share/arduino/libraries/Wire'
p966
aS'/usr/share/arduino/hardware/arduino/cores/arduino'
p967
atp968
a(S'make'
p969
S'/usr/bin/make'
p970
tp971
a(S'build_dir'
p972
S'.build/mega2560'
p973
tp974
a(S'cc'
p975
S'/usr/bin/avr-gcc'
p976
tp977
a(S'cflags'
p978
g2
(g3
g4
(lp979
tp980
Rp981
tp982
a(S'cxxflags'
p983
g2
(g3
g4
(lp984
S'-fno-exceptions'
p985
atp986
Rp987
tp988
a(S'arduino_variants_dir'
p989
S'/usr/share/arduino/hardware/arduino/variants'
p990
tp991
a(S'stty'
p992
S'/bin/stty'
p993
tp994
a(S'version.txt'
p995
S'/usr/share/arduino/lib/version.txt'
p996
tp997
a(S'arduino_core_dir'
p998
g967
tp999
a(S'boards.txt'
p1000
(lp1001
S'/usr/share/arduino/hardware/arduino/boards.txt'
p1002
atp1003
a(S'avrdude.conf'
p1004
S'/usr/share/arduino/hardware/tools/avrdude.conf'
p1005
tp1006
a(g44
g2
(g3
g4
(lp1007
S'.build/mega2560/src/dependencies.d'
p1008
aS'.build/mega2560/arduino/dependencies.d'
p1009
aS'.build/mega2560/Servo/dependencies.d'
p1010
aS'.build/mega2560/Firmata/dependencies.d'
p1011
aS'.build/mega2560/Wire/dependencies.d'
p1012
atp1013
Rp1014
tp1015
a.